target datalayout = "e-m:e-p270:32:32-p271:32:32-p272:64:64-i64:64-i128:128-f80:128-n8:16:32:64-S128"
target triple = "x86_64-pc-linux-gnu"

%struct.conf_file_options = type { ptr, i32, ptr, ptr, ptr, ptr, ptr }

@.str = private unnamed_addr constant [15 x i8] c"parse_config.c\00", align 1
@__func__.transfer_s_p_options = private unnamed_addr constant [21 x i8] c"transfer_s_p_options\00", align 1

; Function Attrs: nounwind uwtable
define dso_local void @transfer_s_p_options(ptr noundef %0, ptr noundef %1, ptr noundef %2) #0 {
  %4 = alloca ptr, align 8
  %5 = alloca ptr, align 8
  %6 = alloca ptr, align 8
  %7 = alloca ptr, align 8
  %8 = alloca i32, align 4
  %9 = alloca ptr, align 8
  store ptr %0, ptr %4, align 8
  store ptr %1, ptr %5, align 8
  store ptr %2, ptr %6, align 8
  call void @llvm.lifetime.start.p0(i64 8, ptr %7) #9
  call void @llvm.lifetime.start.p0(i64 4, ptr %8) #9
  %10 = load ptr, ptr %6, align 8
  %11 = load i32, ptr %10, align 4
  store i32 %11, ptr %8, align 4
  call void @llvm.lifetime.start.p0(i64 8, ptr %9) #9
  %12 = load ptr, ptr %5, align 8
  store ptr %12, ptr %9, align 8
  br label %13

13:                                               ; preds = %38, %3
  %14 = load ptr, ptr %9, align 8
  %15 = getelementptr inbounds nuw %struct.conf_file_options, ptr %14, i32 0, i32 0
  %16 = load ptr, ptr %15, align 8
  %17 = icmp ne ptr %16, null
  br i1 %17, label %19, label %18

18:                                               ; preds = %13
  call void @llvm.lifetime.end.p0(i64 8, ptr %9) #9
  br label %43

19:                                               ; preds = %13
  %20 = load ptr, ptr %4, align 8
  %21 = load i32, ptr %8, align 4
  %22 = add nsw i32 %21, 1
  %23 = sext i32 %22 to i64
  %24 = call ptr @slurm_xrecalloc(ptr noundef %20, i64 noundef %23, i64 noundef 56, i1 noundef zeroext true, i1 noundef zeroext false, ptr noundef @.str, i32 noundef 2437, ptr noundef @__func__.transfer_s_p_options)
  %25 = load ptr, ptr %4, align 8
  %26 = load ptr, ptr %25, align 8
  %27 = load i32, ptr %8, align 4
  %28 = sext i32 %27 to i64
  %29 = getelementptr inbounds %struct.conf_file_options, ptr %26, i64 %28
  store ptr %29, ptr %7, align 8
  %30 = load ptr, ptr %7, align 8
  %31 = load ptr, ptr %9, align 8
  call void @llvm.memcpy.p0.p0.i64(ptr align 8 %30, ptr align 8 %31, i64 56, i1 false)
  %32 = load ptr, ptr %9, align 8
  %33 = getelementptr inbounds nuw %struct.conf_file_options, ptr %32, i32 0, i32 0
  %34 = load ptr, ptr %33, align 8
  %35 = call ptr @xstrdup(ptr noundef %34)
  %36 = load ptr, ptr %7, align 8
  %37 = getelementptr inbounds nuw %struct.conf_file_options, ptr %36, i32 0, i32 0
  store ptr %35, ptr %37, align 8
  br label %38

38:                                               ; preds = %19
  %39 = load ptr, ptr %9, align 8
  %40 = getelementptr inbounds nuw %struct.conf_file_options, ptr %39, i32 1
  store ptr %40, ptr %9, align 8
  %41 = load i32, ptr %8, align 4
  %42 = add nsw i32 %41, 1
  store i32 %42, ptr %8, align 4
  br label %13, !llvm.loop !21

43:                                               ; preds = %18
  %44 = load i32, ptr %8, align 4
  %45 = load ptr, ptr %6, align 8
  store i32 %44, ptr %45, align 4
  call void @llvm.lifetime.end.p0(i64 4, ptr %8) #9
  call void @llvm.lifetime.end.p0(i64 8, ptr %7) #9
  ret void
}