; Function Attrs: nounwind uwtable
define dso_local void @transfer_s_p_options(ptr noundef %0, ptr noundef readonly captures(none) %1, ptr noundef captures(none) %2) #0 {
  %4 = load i32, ptr %2, align 4
  %5 = load ptr, ptr %1, align 8
  %.not15 = icmp eq ptr %5, null
  br i1 %.not15, label %._crit_edge, label %.lr.ph.preheader

.lr.ph.preheader:                                 ; preds = %3
  %6 = sext i32 %4 to i64
  br label %.lr.ph

._crit_edge.loopexit:                             ; preds = %.lr.ph
  %7 = trunc nsw i64 %indvars.iv.next to i32
  br label %._crit_edge

._crit_edge:                                      ; preds = %._crit_edge.loopexit, %3
  %.014.lcssa = phi i32 [ %4, %3 ], [ %7, %._crit_edge.loopexit ]
  store i32 %.014.lcssa, ptr %2, align 4
  ret void

.lr.ph:                                           ; preds = %.lr.ph.preheader, %.lr.ph
  %indvars.iv = phi i64 [ %6, %.lr.ph.preheader ], [ %indvars.iv.next, %.lr.ph ]
  %.017 = phi ptr [ %1, %.lr.ph.preheader ], [ %13, %.lr.ph ]
  %indvars.iv.next = add nsw i64 %indvars.iv, 1
  %8 = tail call ptr @slurm_xrecalloc(ptr noundef %0, i64 noundef %indvars.iv.next, i64 noundef 56, i1 noundef zeroext true, i1 noundef zeroext false, ptr noundef nonnull @.str, i32 noundef 2437, ptr noundef nonnull @__func__.transfer_s_p_options) #13
  %9 = load ptr, ptr %0, align 8
  %10 = getelementptr inbounds %struct.conf_file_options, ptr %9, i64 %indvars.iv
  tail call void @llvm.memcpy.p0.p0.i64(ptr noundef nonnull align 8 dereferenceable(56) %10, ptr noundef nonnull align 8 dereferenceable(56) %.017, i64 56, i1 false)
  %11 = load ptr, ptr %.017, align 8
  %12 = tail call ptr @xstrdup(ptr noundef %11) #13
  store ptr %12, ptr %10, align 8
  %13 = getelementptr inbounds nuw i8, ptr %.017, i64 56
  %14 = load ptr, ptr %13, align 8
  %.not = icmp eq ptr %14, null
  br i1 %.not, label %._crit_edge.loopexit, label %.lr.ph, !llvm.loop !36
}